target datalayout = "e-m:e-p270:32:32-p271:32:32-p272:64:64-i64:64-i128:128-f80:128-n8:16:32:64-S128"
target triple = "x86_64-pc-linux-gnu"

%struct.rb_control_frame_struct = type { ptr, ptr, ptr, i64, ptr, ptr, ptr }
%struct.rb_execution_context_struct = type { ptr, i64, ptr, ptr, i32, i32, ptr, ptr, ptr, i64, i64, i64, ptr, i64, ptr, i64, i64, i8, i8, i64, %struct.anon.0 }
%struct.anon.0 = type { ptr, ptr, i64, [1 x %struct.__jmp_buf_tag] }
%struct.__jmp_buf_tag = type { [8 x i64], i32, %struct.__sigset_t }
%struct.__sigset_t = type { [16 x i64] }
%struct.rb_iseq_struct = type { i64, i64, ptr, %union.anon.15 }
%union.anon.15 = type { %struct.anon.16 }
%struct.anon.16 = type { i64, i32 }
%struct.rb_iseq_constant_body = type { i32, i32, ptr, %struct.anon.18, %struct.rb_iseq_location_struct, %struct.iseq_insn_info, ptr, ptr, ptr, ptr, ptr, ptr, %struct.anon.19, i32, i32, i32, i32, i32, i32, i32, i32, i8, %union.anon.20, ptr, ptr, ptr, i64, ptr, i64, ptr, i64 }
%struct.anon.18 = type { %struct.anon, i32, i32, i32, i32, i32, i32, i32, ptr, ptr }
%struct.anon = type { i16, [2 x i8] }
%struct.rb_iseq_location_struct = type { i64, i64, i64, i32, i32, %struct.rb_code_location_struct }
%struct.rb_code_location_struct = type { %struct.rb_code_position_struct, %struct.rb_code_position_struct }
%struct.rb_code_position_struct = type { i32, i32 }
%struct.iseq_insn_info = type { ptr, ptr, i32, ptr }
%struct.anon.19 = type { i64, i64, i64, i64, ptr }
%union.anon.20 = type { ptr }
%struct.rb_callable_method_entry_struct = type { i64, i64, ptr, i64, i64 }
%struct.rb_method_definition_struct = type { i64, %union.anon, i64, i64 }
%union.anon = type { %struct.rb_method_cfunc_struct }
%struct.rb_method_cfunc_struct = type { ptr, ptr, i32 }
%struct.rb_callcache = type { i64, i64, ptr, ptr, %union.anon.21 }
%union.anon.21 = type { %struct.anon.22 }
%struct.anon.22 = type { i64 }
%struct.rb_calling_info = type { ptr, ptr, i64, i64, i32, i8, i64 }
%struct.rb_method_iseq_struct = type { ptr, ptr }

; Function Attrs: nounwind sspstrong uwtable
define internal void @vm_push_frame(ptr noundef %0, ptr noundef %1, i64 noundef %2, i64 noundef %3, i64 noundef %4, i64 noundef %5, ptr noundef %6, ptr noundef %7, i32 noundef %8, i32 noundef %9) #0 {
  %11 = alloca ptr, align 8
  %12 = alloca ptr, align 8
  %13 = alloca i64, align 8
  %14 = alloca i64, align 8
  %15 = alloca i64, align 8
  %16 = alloca i64, align 8
  %17 = alloca ptr, align 8
  %18 = alloca ptr, align 8
  %19 = alloca i32, align 4
  %20 = alloca i32, align 4
  %21 = alloca ptr, align 8
  %22 = alloca ptr, align 8
  %23 = alloca i32, align 4
  %24 = alloca %struct.rb_control_frame_struct, align 8
  store ptr %0, ptr %11, align 8, !tbaa !33
  store ptr %1, ptr %12, align 8, !tbaa !78
  store i64 %2, ptr %13, align 8, !tbaa !31
  store i64 %3, ptr %14, align 8, !tbaa !31
  store i64 %4, ptr %15, align 8, !tbaa !31
  store i64 %5, ptr %16, align 8, !tbaa !31
  store ptr %6, ptr %17, align 8, !tbaa !7
  store ptr %7, ptr %18, align 8, !tbaa !7
  store i32 %8, ptr %19, align 4, !tbaa !24
  store i32 %9, ptr %20, align 4, !tbaa !24
  call void @llvm.lifetime.start.p0(i64 8, ptr %21) #21
  %25 = load ptr, ptr %11, align 8, !tbaa !33
  %26 = getelementptr inbounds nuw %struct.rb_execution_context_struct, ptr %25, i32 0, i32 2
  %27 = load ptr, ptr %26, align 8, !tbaa !76
  %28 = getelementptr %struct.rb_control_frame_struct, ptr %27, i64 -1
  store ptr %28, ptr %21, align 8, !tbaa !14
  br label %29

29:                                               ; preds = %10
  call void @llvm.lifetime.start.p0(i64 8, ptr %22) #21
  %30 = load ptr, ptr %18, align 8, !tbaa !7
  %31 = load i32, ptr %19, align 4, !tbaa !24
  %32 = load i32, ptr %20, align 4, !tbaa !24
  %33 = add i32 %31, %32
  %34 = sext i32 %33 to i64
  %35 = getelementptr i64, ptr %30, i64 %34
  store ptr %35, ptr %22, align 8, !tbaa !14
  %36 = load ptr, ptr %21, align 8, !tbaa !14
  %37 = load ptr, ptr %22, align 8, !tbaa !14
  %38 = getelementptr %struct.rb_control_frame_struct, ptr %37, i64 1
  %39 = icmp ule ptr %36, %38
  %40 = xor i1 %39, true
  %41 = xor i1 %40, true
  %42 = zext i1 %41 to i32
  %43 = sext i32 %42 to i64
  %44 = call i64 @llvm.expect.i64(i64 %43, i64 0)
  %45 = icmp ne i64 %44, 0
  br i1 %45, label %46, label %47

46:                                               ; preds = %29
  call void @vm_stackoverflow() #38
  unreachable

47:                                               ; preds = %29
  call void @llvm.lifetime.end.p0(i64 8, ptr %22) #21
  br label %48

48:                                               ; preds = %47
  br label %49

49:                                               ; preds = %48
  call void @llvm.lifetime.start.p0(i64 4, ptr %23) #21
  store i32 0, ptr %23, align 4, !tbaa !24
  br label %50

50:                                               ; preds = %58, %49
  %51 = load i32, ptr %23, align 4, !tbaa !24
  %52 = load i32, ptr %19, align 4, !tbaa !24
  %53 = icmp slt i32 %51, %52
  br i1 %53, label %55, label %54

54:                                               ; preds = %50
  call void @llvm.lifetime.end.p0(i64 4, ptr %23) #21
  br label %61

55:                                               ; preds = %50
  %56 = load ptr, ptr %18, align 8, !tbaa !7
  %57 = getelementptr i64, ptr %56, i32 1
  store ptr %57, ptr %18, align 8, !tbaa !7
  store i64 4, ptr %56, align 8, !tbaa !31
  br label %58

58:                                               ; preds = %55
  %59 = load i32, ptr %23, align 4, !tbaa !24
  %60 = add i32 %59, 1
  store i32 %60, ptr %23, align 4, !tbaa !24
  br label %50, !llvm.loop !105

61:                                               ; preds = %54
  %62 = load i64, ptr %16, align 8, !tbaa !31
  %63 = load ptr, ptr %18, align 8, !tbaa !7
  %64 = getelementptr i64, ptr %63, i32 1
  store ptr %64, ptr %18, align 8, !tbaa !7
  store i64 %62, ptr %63, align 8, !tbaa !31
  %65 = load i64, ptr %15, align 8, !tbaa !31
  %66 = load ptr, ptr %18, align 8, !tbaa !7
  %67 = getelementptr i64, ptr %66, i32 1
  store ptr %67, ptr %18, align 8, !tbaa !7
  store i64 %65, ptr %66, align 8, !tbaa !31
  %68 = load i64, ptr %13, align 8, !tbaa !31
  %69 = load ptr, ptr %18, align 8, !tbaa !7
  %70 = getelementptr i64, ptr %69, i32 1
  store ptr %70, ptr %18, align 8, !tbaa !7
  store i64 %68, ptr %69, align 8, !tbaa !31
  %71 = load ptr, ptr %21, align 8, !tbaa !14
  %72 = getelementptr inbounds nuw %struct.rb_control_frame_struct, ptr %24, i32 0, i32 0
  %73 = load ptr, ptr %17, align 8, !tbaa !7
  store ptr %73, ptr %72, align 8, !tbaa !106
  %74 = getelementptr inbounds nuw %struct.rb_control_frame_struct, ptr %24, i32 0, i32 1
  %75 = load ptr, ptr %18, align 8, !tbaa !7
  store ptr %75, ptr %74, align 8, !tbaa !101
  %76 = getelementptr inbounds nuw %struct.rb_control_frame_struct, ptr %24, i32 0, i32 2
  %77 = load ptr, ptr %12, align 8, !tbaa !78
  store ptr %77, ptr %76, align 8, !tbaa !107
  %78 = getelementptr inbounds nuw %struct.rb_control_frame_struct, ptr %24, i32 0, i32 3
  %79 = load i64, ptr %14, align 8, !tbaa !31
  store i64 %79, ptr %78, align 8, !tbaa !100
  %80 = getelementptr inbounds nuw %struct.rb_control_frame_struct, ptr %24, i32 0, i32 4
  %81 = load ptr, ptr %18, align 8, !tbaa !7
  %82 = getelementptr i64, ptr %81, i64 -1
  store ptr %82, ptr %80, align 8, !tbaa !16
  %83 = getelementptr inbounds nuw %struct.rb_control_frame_struct, ptr %24, i32 0, i32 5
  store ptr null, ptr %83, align 8, !tbaa !108
  %84 = getelementptr inbounds nuw %struct.rb_control_frame_struct, ptr %24, i32 0, i32 6
  store ptr null, ptr %84, align 8, !tbaa !109
  call void @llvm.memcpy.p0.p0.i64(ptr align 8 %71, ptr align 8 %24, i64 56, i1 false), !tbaa.struct !110
  fence syncscope("singlethread") seq_cst
  %85 = load ptr, ptr %21, align 8, !tbaa !14
  %86 = load ptr, ptr %11, align 8, !tbaa !33
  %87 = getelementptr inbounds nuw %struct.rb_execution_context_struct, ptr %86, i32 0, i32 2
  store ptr %85, ptr %87, align 8, !tbaa !76
  call void @llvm.lifetime.end.p0(i64 8, ptr %21) #21
  ret void
}

; Function Attrs: inlinehint nounwind sspstrong uwtable
define internal ptr @rb_iseq_check(ptr noundef %0) #2 {
  %2 = alloca ptr, align 8
  store ptr %0, ptr %2, align 8, !tbaa !78
  %3 = load ptr, ptr %2, align 8, !tbaa !78
  ret ptr %3
}

; Function Attrs: alwaysinline nounwind sspstrong uwtable
define internal i64 @vm_call_iseq_setup_normal(ptr noundef %0, ptr noundef %1, ptr noundef %2, ptr noundef %3, i32 noundef %4, i32 noundef %5, i32 noundef %6) #20 {
  %8 = alloca ptr, align 8
  %9 = alloca ptr, align 8
  %10 = alloca ptr, align 8
  %11 = alloca ptr, align 8
  %12 = alloca i32, align 4
  %13 = alloca i32, align 4
  %14 = alloca i32, align 4
  %15 = alloca ptr, align 8
  %16 = alloca ptr, align 8
  %17 = alloca ptr, align 8
  store ptr %0, ptr %8, align 8, !tbaa !33
  store ptr %1, ptr %9, align 8, !tbaa !14
  store ptr %2, ptr %10, align 8, !tbaa !186
  store ptr %3, ptr %11, align 8, !tbaa !113
  store i32 %4, ptr %12, align 4, !tbaa !24
  store i32 %5, ptr %13, align 4, !tbaa !24
  store i32 %6, ptr %14, align 4, !tbaa !24
  call void @llvm.lifetime.start.p0(i64 8, ptr %15) #21
  %18 = load ptr, ptr %11, align 8, !tbaa !113
  %19 = getelementptr inbounds nuw %struct.rb_callable_method_entry_struct, ptr %18, i32 0, i32 2
  %20 = load ptr, ptr %19, align 8, !tbaa !168
  %21 = call ptr @def_iseq_ptr(ptr noundef %20)
  store ptr %21, ptr %15, align 8, !tbaa !78
  call void @llvm.lifetime.start.p0(i64 8, ptr %16) #21
  %22 = load ptr, ptr %9, align 8, !tbaa !14
  %23 = getelementptr inbounds nuw %struct.rb_control_frame_struct, ptr %22, i32 0, i32 1
  %24 = load ptr, ptr %23, align 8, !tbaa !101
  %25 = load ptr, ptr %10, align 8, !tbaa !186
  %26 = getelementptr inbounds nuw %struct.rb_calling_info, ptr %25, i32 0, i32 4
  %27 = load i32, ptr %26, align 8, !tbaa !219
  %28 = sext i32 %27 to i64
  %29 = sub i64 0, %28
  %30 = getelementptr i64, ptr %24, i64 %29
  store ptr %30, ptr %16, align 8, !tbaa !7
  call void @llvm.lifetime.start.p0(i64 8, ptr %17) #21
  %31 = load ptr, ptr %16, align 8, !tbaa !7
  %32 = load i32, ptr %13, align 4, !tbaa !24
  %33 = sext i32 %32 to i64
  %34 = getelementptr i64, ptr %31, i64 %33
  store ptr %34, ptr %17, align 8, !tbaa !7
  %35 = load ptr, ptr %16, align 8, !tbaa !7
  %36 = getelementptr i64, ptr %35, i64 -1
  %37 = load ptr, ptr %9, align 8, !tbaa !14
  %38 = getelementptr inbounds nuw %struct.rb_control_frame_struct, ptr %37, i32 0, i32 1
  store ptr %36, ptr %38, align 8, !tbaa !101
  %39 = load ptr, ptr %8, align 8, !tbaa !33
  %40 = load ptr, ptr %15, align 8, !tbaa !78
  %41 = load ptr, ptr %10, align 8, !tbaa !186
  %42 = getelementptr inbounds nuw %struct.rb_calling_info, ptr %41, i32 0, i32 3
  %43 = load i64, ptr %42, align 8, !tbaa !218
  %44 = load ptr, ptr %10, align 8, !tbaa !186
  %45 = getelementptr inbounds nuw %struct.rb_calling_info, ptr %44, i32 0, i32 2
  %46 = load i64, ptr %45, align 8, !tbaa !217
  %47 = load ptr, ptr %11, align 8, !tbaa !113
  %48 = ptrtoint ptr %47 to i64
  %49 = load ptr, ptr %15, align 8, !tbaa !78
  %50 = getelementptr inbounds nuw %struct.rb_iseq_struct, ptr %49, i32 0, i32 2
  %51 = load ptr, ptr %50, align 8, !tbaa !81
  %52 = getelementptr inbounds nuw %struct.rb_iseq_constant_body, ptr %51, i32 0, i32 2
  %53 = load ptr, ptr %52, align 8, !tbaa !246
  %54 = load i32, ptr %12, align 4, !tbaa !24
  %55 = sext i32 %54 to i64
  %56 = getelementptr i64, ptr %53, i64 %55
  %57 = load ptr, ptr %17, align 8, !tbaa !7
  %58 = load i32, ptr %14, align 4, !tbaa !24
  %59 = load i32, ptr %13, align 4, !tbaa !24
  %60 = sub i32 %58, %59
  %61 = load ptr, ptr %15, align 8, !tbaa !78
  %62 = getelementptr inbounds nuw %struct.rb_iseq_struct, ptr %61, i32 0, i32 2
  %63 = load ptr, ptr %62, align 8, !tbaa !81
  %64 = getelementptr inbounds nuw %struct.rb_iseq_constant_body, ptr %63, i32 0, i32 19
  %65 = load i32, ptr %64, align 8, !tbaa !257
  call void @vm_push_frame(ptr noundef %39, ptr noundef %40, i64 noundef 286326787, i64 noundef %43, i64 noundef %46, i64 noundef %48, ptr noundef %56, ptr noundef %57, i32 noundef %60, i32 noundef %65)
  call void @llvm.lifetime.end.p0(i64 8, ptr %17) #21
  call void @llvm.lifetime.end.p0(i64 8, ptr %16) #21
  call void @llvm.lifetime.end.p0(i64 8, ptr %15) #21
  ret i64 36
}

; Function Attrs: inlinehint nounwind sspstrong uwtable
define internal ptr @def_iseq_ptr(ptr noundef %0) #2 {
  %2 = alloca ptr, align 8
  store ptr %0, ptr %2, align 8, !tbaa !185
  %3 = load ptr, ptr %2, align 8, !tbaa !185
  %4 = getelementptr inbounds nuw %struct.rb_method_definition_struct, ptr %3, i32 0, i32 1
  %5 = getelementptr inbounds nuw %struct.rb_method_iseq_struct, ptr %4, i32 0, i32 0
  %6 = load ptr, ptr %5, align 8, !tbaa !58
  %7 = call ptr @rb_iseq_check(ptr noundef %6)
  ret ptr %7
}

; Function Attrs: inlinehint nounwind sspstrong uwtable
define internal ptr @vm_cc_cme(ptr noundef %0) #2 {
  %2 = alloca ptr, align 8
  store ptr %0, ptr %2, align 8, !tbaa !144
  %3 = load ptr, ptr %2, align 8, !tbaa !144
  %4 = getelementptr inbounds nuw %struct.rb_callcache, ptr %3, i32 0, i32 2
  %5 = load ptr, ptr %4, align 8, !tbaa !351
  ret ptr %5
}

; Function Attrs: nounwind sspstrong uwtable
define internal i64 @vm_call_iseq_setup_normal_0start(ptr noundef %0, ptr noundef %1, ptr noundef %2) #0 {
  %4 = alloca ptr, align 8
  %5 = alloca ptr, align 8
  %6 = alloca ptr, align 8
  %7 = alloca ptr, align 8
  %8 = alloca ptr, align 8
  %9 = alloca i32, align 4
  %10 = alloca i32, align 4
  store ptr %0, ptr %4, align 8, !tbaa !33
  store ptr %1, ptr %5, align 8, !tbaa !14
  store ptr %2, ptr %6, align 8, !tbaa !186
  call void @llvm.lifetime.start.p0(i64 8, ptr %7) #21
  %11 = load ptr, ptr %6, align 8, !tbaa !186
  %12 = getelementptr inbounds nuw %struct.rb_calling_info, ptr %11, i32 0, i32 1
  %13 = load ptr, ptr %12, align 8, !tbaa !216
  store ptr %13, ptr %7, align 8, !tbaa !144
  call void @llvm.lifetime.start.p0(i64 8, ptr %8) #21
  %14 = load ptr, ptr %7, align 8, !tbaa !144
  %15 = call ptr @vm_cc_cme(ptr noundef %14)
  %16 = getelementptr inbounds nuw %struct.rb_callable_method_entry_struct, ptr %15, i32 0, i32 2
  %17 = load ptr, ptr %16, align 8, !tbaa !168
  %18 = call ptr @def_iseq_ptr(ptr noundef %17)
  store ptr %18, ptr %8, align 8, !tbaa !78
  call void @llvm.lifetime.start.p0(i64 4, ptr %9) #21
  %19 = load ptr, ptr %8, align 8, !tbaa !78
  %20 = getelementptr inbounds nuw %struct.rb_iseq_struct, ptr %19, i32 0, i32 2
  %21 = load ptr, ptr %20, align 8, !tbaa !81
  %22 = getelementptr inbounds nuw %struct.rb_iseq_constant_body, ptr %21, i32 0, i32 3
  %23 = getelementptr inbounds nuw %struct.anon.18, ptr %22, i32 0, i32 1
  %24 = load i32, ptr %23, align 4, !tbaa !170
  store i32 %24, ptr %9, align 4, !tbaa !24
  call void @llvm.lifetime.start.p0(i64 4, ptr %10) #21
  %25 = load ptr, ptr %8, align 8, !tbaa !78
  %26 = getelementptr inbounds nuw %struct.rb_iseq_struct, ptr %25, i32 0, i32 2
  %27 = load ptr, ptr %26, align 8, !tbaa !81
  %28 = getelementptr inbounds nuw %struct.rb_iseq_constant_body, ptr %27, i32 0, i32 13
  %29 = load i32, ptr %28, align 8, !tbaa !169
  store i32 %29, ptr %10, align 4, !tbaa !24
  %30 = load ptr, ptr %4, align 8, !tbaa !33
  %31 = load ptr, ptr %5, align 8, !tbaa !14
  %32 = load ptr, ptr %6, align 8, !tbaa !186
  %33 = load ptr, ptr %7, align 8, !tbaa !144
  %34 = call ptr @vm_cc_cme(ptr noundef %33)
  %35 = load i32, ptr %9, align 4, !tbaa !24
  %36 = load i32, ptr %10, align 4, !tbaa !24
  %37 = call i64 @vm_call_iseq_setup_normal(ptr noundef %30, ptr noundef %31, ptr noundef %32, ptr noundef %34, i32 noundef 0, i32 noundef %35, i32 noundef %36)
  call void @llvm.lifetime.end.p0(i64 4, ptr %10) #21
  call void @llvm.lifetime.end.p0(i64 4, ptr %9) #21
  call void @llvm.lifetime.end.p0(i64 8, ptr %8) #21
  call void @llvm.lifetime.end.p0(i64 8, ptr %7) #21
  ret i64 %37
}