; Function Attrs: nounwind sspstrong uwtable
define internal noundef i64 @vm_call_iseq_setup_normal_0start(ptr noundef captures(none) %0, ptr noundef captures(none) %1, ptr noundef readonly captures(none) %2) #2 {
  %4 = getelementptr inbounds nuw i8, ptr %2, i64 8
  %5 = load ptr, ptr %4, align 8, !tbaa !219
  %6 = getelementptr i8, ptr %5, i64 16
  %.val9 = load ptr, ptr %6, align 8, !tbaa !218
  %7 = getelementptr inbounds nuw i8, ptr %.val9, i64 16
  %8 = load ptr, ptr %7, align 8, !tbaa !101
  %9 = getelementptr i8, ptr %8, i64 8
  %.val11 = load ptr, ptr %9, align 8, !tbaa !26
  %10 = getelementptr inbounds nuw i8, ptr %.val11, i64 16
  %11 = load ptr, ptr %10, align 8, !tbaa !73
  %12 = getelementptr inbounds nuw i8, ptr %11, i64 20
  %13 = load i32, ptr %12, align 4, !tbaa !183
  %14 = getelementptr inbounds nuw i8, ptr %11, i64 232
  %15 = load i32, ptr %14, align 8, !tbaa !182
  %16 = getelementptr inbounds nuw i8, ptr %1, i64 8
  %17 = load ptr, ptr %16, align 8, !tbaa !93
  %18 = getelementptr inbounds nuw i8, ptr %2, i64 32
  %19 = load i32, ptr %18, align 8, !tbaa !213
  %20 = sext i32 %19 to i64
  %21 = sub nsw i64 0, %20
  %22 = getelementptr i64, ptr %17, i64 %21
  %23 = sext i32 %13 to i64
  %24 = getelementptr i64, ptr %22, i64 %23
  %25 = getelementptr i8, ptr %22, i64 -8
  store ptr %25, ptr %16, align 8, !tbaa !93
  %26 = getelementptr inbounds nuw i8, ptr %2, i64 24
  %27 = load i64, ptr %26, align 8, !tbaa !212
  %28 = getelementptr inbounds nuw i8, ptr %2, i64 16
  %29 = load i64, ptr %28, align 8, !tbaa !211
  %30 = getelementptr inbounds nuw i8, ptr %11, i64 8
  %31 = load ptr, ptr %30, align 8, !tbaa !137
  %32 = sub i32 %15, %13
  %33 = getelementptr inbounds nuw i8, ptr %11, i64 256
  %34 = load i32, ptr %33, align 8, !tbaa !314
  %35 = getelementptr inbounds nuw i8, ptr %0, i64 16
  %36 = load ptr, ptr %35, align 8, !tbaa !66
  %37 = getelementptr i8, ptr %36, i64 -56
  %38 = add i32 %34, %32
  %39 = sext i32 %38 to i64
  %40 = getelementptr i64, ptr %24, i64 %39
  %41 = getelementptr i8, ptr %40, i64 56
  %.not.i = icmp ugt ptr %37, %41
  br i1 %.not.i, label %.preheader.i, label %43, !prof !69

.preheader.i:                                     ; preds = %3
  %42 = icmp sgt i32 %32, 0
  br i1 %42, label %.lr.ph.i, label %vm_push_frame.exit

43:                                               ; preds = %3
  tail call fastcc void @vm_stackoverflow() #56
  unreachable

.lr.ph.i:                                         ; preds = %.preheader.i, %.lr.ph.i
  %.026.i = phi ptr [ %44, %.lr.ph.i ], [ %24, %.preheader.i ]
  %.02325.i = phi i32 [ %45, %.lr.ph.i ], [ 0, %.preheader.i ]
  %44 = getelementptr i8, ptr %.026.i, i64 8
  store i64 4, ptr %.026.i, align 8, !tbaa !7
  %45 = add nuw nsw i32 %.02325.i, 1
  %exitcond.not.i = icmp eq i32 %45, %32
  br i1 %exitcond.not.i, label %vm_push_frame.exit, label %.lr.ph.i, !llvm.loop !315

vm_push_frame.exit:                               ; preds = %.lr.ph.i, %.preheader.i
  %.0.lcssa.i = phi ptr [ %24, %.preheader.i ], [ %44, %.lr.ph.i ]
  %46 = ptrtoint ptr %.val9 to i64
  %47 = getelementptr i8, ptr %.0.lcssa.i, i64 8
  store i64 %46, ptr %.0.lcssa.i, align 8, !tbaa !7
  %48 = getelementptr i8, ptr %.0.lcssa.i, i64 16
  store i64 %29, ptr %47, align 8, !tbaa !7
  %49 = getelementptr i8, ptr %.0.lcssa.i, i64 24
  store i64 286326787, ptr %48, align 8, !tbaa !7
  store ptr %31, ptr %37, align 8, !tbaa !95
  %.sroa.2.0..sroa_idx.i = getelementptr i8, ptr %36, i64 -48
  store ptr %49, ptr %.sroa.2.0..sroa_idx.i, align 8, !tbaa !95
  %.sroa.3.0..sroa_idx.i = getelementptr i8, ptr %36, i64 -40
  store ptr %.val11, ptr %.sroa.3.0..sroa_idx.i, align 8, !tbaa !96
  %.sroa.4.0..sroa_idx.i = getelementptr i8, ptr %36, i64 -32
  store i64 %27, ptr %.sroa.4.0..sroa_idx.i, align 8, !tbaa !7
  %.sroa.5.0..sroa_idx.i = getelementptr i8, ptr %36, i64 -24
  store ptr %48, ptr %.sroa.5.0..sroa_idx.i, align 8, !tbaa !95
  %.sroa.6.0..sroa_idx.i = getelementptr i8, ptr %36, i64 -16
  tail call void @llvm.memset.p0.i64(ptr noundef nonnull align 8 dereferenceable(16) %.sroa.6.0..sroa_idx.i, i8 0, i64 16, i1 false)
  fence syncscope("singlethread") seq_cst
  store ptr %37, ptr %35, align 8, !tbaa !66
  ret i64 36
}